target datalayout = "e-m:e-p270:32:32-p271:32:32-p272:64:64-i64:64-i128:128-f80:128-n8:16:32:64-S128"
target triple = "x86_64-pc-linux-gnu"

%"struct.OpenImageIO::v3_1_0::TypeDesc" = type { i8, i8, i8, i8, i32 }
%"class.OpenImageIO::v3_1_0::basic_string_view" = type { ptr, i64 }
%"class.OpenImageIO::v3_1_0::span" = type { ptr, i64 }
%"struct.OpenImageIO::v3_1_0::(anonymous namespace)::ChanNameHolder" = type <{ %"class.OpenImageIO::v3_1_0::basic_string_view", %"class.OpenImageIO::v3_1_0::basic_string_view", %"class.OpenImageIO::v3_1_0::basic_string_view", i32, i32, i32, %"struct.OpenImageIO::v3_1_0::TypeDesc", i32, i32, [4 x i8] }>

; Function Attrs: mustprogress nounwind uwtable
define linkonce_odr hidden noundef i64 @_ZNK11OpenImageIO6v3_1_017basic_string_viewIcSt11char_traitsIcEE4sizeEv(ptr noundef nonnull align 8 dereferenceable(16) %0) #7 comdat align 2 {
  %2 = alloca ptr, align 8
  store ptr %0, ptr %2, align 8, !tbaa !30
  %3 = load ptr, ptr %2, align 8
  %4 = getelementptr inbounds nuw %"class.OpenImageIO::v3_1_0::basic_string_view", ptr %3, i32 0, i32 1
  %5 = load i64, ptr %4, align 8, !tbaa !37
  ret i64 %5
}

; Function Attrs: mustprogress nounwind uwtable
define linkonce_odr hidden noundef ptr @_ZNK11OpenImageIO6v3_1_017basic_string_viewIcSt11char_traitsIcEE4dataEv(ptr noundef nonnull align 8 dereferenceable(16) %0) #7 comdat align 2 {
  %2 = alloca ptr, align 8
  store ptr %0, ptr %2, align 8, !tbaa !30
  %3 = load ptr, ptr %2, align 8
  %4 = getelementptr inbounds nuw %"class.OpenImageIO::v3_1_0::basic_string_view", ptr %3, i32 0, i32 0
  %5 = load ptr, ptr %4, align 8, !tbaa !35
  ret ptr %5
}

; Function Attrs: mustprogress nounwind uwtable
define linkonce_odr hidden void @_ZN11OpenImageIO6v3_1_017basic_string_viewIcSt11char_traitsIcEEC2ERKS4_(ptr noundef nonnull align 8 dereferenceable(16) %0, ptr noundef nonnull align 8 dereferenceable(16) %1) unnamed_addr #7 comdat align 2 {
  %3 = alloca ptr, align 8
  %4 = alloca ptr, align 8
  store ptr %0, ptr %3, align 8, !tbaa !30
  store ptr %1, ptr %4, align 8, !tbaa !30
  %5 = load ptr, ptr %3, align 8
  %6 = getelementptr inbounds nuw %"class.OpenImageIO::v3_1_0::basic_string_view", ptr %5, i32 0, i32 0
  %7 = load ptr, ptr %4, align 8, !tbaa !30
  %8 = call noundef ptr @_ZNK11OpenImageIO6v3_1_017basic_string_viewIcSt11char_traitsIcEE4dataEv(ptr noundef nonnull align 8 dereferenceable(16) %7) #5
  store ptr %8, ptr %6, align 8, !tbaa !35
  %9 = getelementptr inbounds nuw %"class.OpenImageIO::v3_1_0::basic_string_view", ptr %5, i32 0, i32 1
  %10 = load ptr, ptr %4, align 8, !tbaa !30
  %11 = call noundef i64 @_ZNK11OpenImageIO6v3_1_017basic_string_viewIcSt11char_traitsIcEE4sizeEv(ptr noundef nonnull align 8 dereferenceable(16) %10) #5
  store i64 %11, ptr %9, align 8, !tbaa !37
  ret void
}

; Function Attrs: mustprogress nounwind uwtable
define internal noundef ptr @_ZNK11OpenImageIO6v3_1_04spanINS0_12_GLOBAL__N_114ChanNameHolderELm18446744073709551615EE3endEv(ptr noundef nonnull align 8 dereferenceable(16) %0) #7 align 2 {
  %2 = alloca ptr, align 8
  store ptr %0, ptr %2, align 8, !tbaa !308
  %3 = load ptr, ptr %2, align 8
  %4 = getelementptr inbounds nuw %"class.OpenImageIO::v3_1_0::span", ptr %3, i32 0, i32 0
  %5 = load ptr, ptr %4, align 8, !tbaa !360
  %6 = getelementptr inbounds nuw %"class.OpenImageIO::v3_1_0::span", ptr %3, i32 0, i32 1
  %7 = load i64, ptr %6, align 8, !tbaa !362
  %8 = getelementptr inbounds nuw %"struct.OpenImageIO::v3_1_0::(anonymous namespace)::ChanNameHolder", ptr %5, i64 %7
  ret ptr %8
}

; Function Attrs: mustprogress nounwind uwtable
define internal noundef ptr @_ZNK11OpenImageIO6v3_1_04spanINS0_12_GLOBAL__N_114ChanNameHolderELm18446744073709551615EE5beginEv(ptr noundef nonnull align 8 dereferenceable(16) %0) #7 align 2 {
  %2 = alloca ptr, align 8
  store ptr %0, ptr %2, align 8, !tbaa !308
  %3 = load ptr, ptr %2, align 8
  %4 = getelementptr inbounds nuw %"class.OpenImageIO::v3_1_0::span", ptr %3, i32 0, i32 0
  %5 = load ptr, ptr %4, align 8, !tbaa !360
  ret ptr %5
}

; Function Attrs: mustprogress uwtable
define internal noundef zeroext i1 @_ZN11OpenImageIO6v3_1_012_GLOBAL__N_111suffixfoundENS0_17basic_string_viewIcSt11char_traitsIcEEENS0_4spanINS1_14ChanNameHolderELm18446744073709551615EEE(ptr noundef %0, ptr %1, i64 %2) #8 {
  %4 = alloca i1, align 1
  %5 = alloca %"class.OpenImageIO::v3_1_0::span", align 8
  %6 = alloca ptr, align 8
  %7 = alloca ptr, align 8
  %8 = alloca ptr, align 8
  %9 = alloca ptr, align 8
  %10 = alloca i32, align 4
  %11 = alloca ptr, align 8
  %12 = alloca %"class.OpenImageIO::v3_1_0::basic_string_view", align 8
  %13 = alloca %"class.OpenImageIO::v3_1_0::basic_string_view", align 8
  %14 = getelementptr inbounds nuw { ptr, i64 }, ptr %5, i32 0, i32 0
  store ptr %1, ptr %14, align 8
  %15 = getelementptr inbounds nuw { ptr, i64 }, ptr %5, i32 0, i32 1
  store i64 %2, ptr %15, align 8
  store ptr %0, ptr %6, align 8, !tbaa !30
  call void @llvm.lifetime.start.p0(i64 8, ptr %7) #5
  store ptr %5, ptr %7, align 8, !tbaa !308
  call void @llvm.lifetime.start.p0(i64 8, ptr %8) #5
  %16 = load ptr, ptr %7, align 8, !tbaa !308
  %17 = call noundef ptr @_ZNK11OpenImageIO6v3_1_04spanINS0_12_GLOBAL__N_114ChanNameHolderELm18446744073709551615EE5beginEv(ptr noundef nonnull align 8 dereferenceable(16) %16) #5
  store ptr %17, ptr %8, align 8, !tbaa !306
  call void @llvm.lifetime.start.p0(i64 8, ptr %9) #5
  %18 = load ptr, ptr %7, align 8, !tbaa !308
  %19 = call noundef ptr @_ZNK11OpenImageIO6v3_1_04spanINS0_12_GLOBAL__N_114ChanNameHolderELm18446744073709551615EE3endEv(ptr noundef nonnull align 8 dereferenceable(16) %18) #5
  store ptr %19, ptr %9, align 8, !tbaa !306
  br label %20

20:                                               ; preds = %35, %3
  %21 = load ptr, ptr %8, align 8, !tbaa !306
  %22 = load ptr, ptr %9, align 8, !tbaa !306
  %23 = icmp ne ptr %21, %22
  br i1 %23, label %25, label %24

24:                                               ; preds = %20
  store i32 2, ptr %10, align 4
  br label %38

25:                                               ; preds = %20
  call void @llvm.lifetime.start.p0(i64 8, ptr %11) #5
  %26 = load ptr, ptr %8, align 8, !tbaa !306
  store ptr %26, ptr %11, align 8, !tbaa !306
  call void @_ZN11OpenImageIO6v3_1_017basic_string_viewIcSt11char_traitsIcEEC2ERKS4_(ptr noundef nonnull align 8 dereferenceable(16) %12, ptr noundef nonnull align 8 dereferenceable(16) %0)
  %27 = load ptr, ptr %11, align 8, !tbaa !306
  %28 = getelementptr inbounds nuw %"struct.OpenImageIO::v3_1_0::(anonymous namespace)::ChanNameHolder", ptr %27, i32 0, i32 2
  call void @_ZN11OpenImageIO6v3_1_017basic_string_viewIcSt11char_traitsIcEEC2ERKS4_(ptr noundef nonnull align 8 dereferenceable(16) %13, ptr noundef nonnull align 8 dereferenceable(16) %28)
  %29 = call noundef zeroext i1 @_ZN11OpenImageIO6v3_1_07Strutil7iequalsENS0_17basic_string_viewIcSt11char_traitsIcEEES5_(ptr noundef %12, ptr noundef %13)
  br i1 %29, label %30, label %31

30:                                               ; preds = %25
  store i1 true, ptr %4, align 1
  store i32 1, ptr %10, align 4
  br label %32

31:                                               ; preds = %25
  store i32 0, ptr %10, align 4
  br label %32

32:                                               ; preds = %31, %30
  call void @llvm.lifetime.end.p0(i64 8, ptr %11) #5
  %33 = load i32, ptr %10, align 4
  switch i32 %33, label %38 [
    i32 0, label %34
  ]

34:                                               ; preds = %32
  br label %35

35:                                               ; preds = %34
  %36 = load ptr, ptr %8, align 8, !tbaa !306
  %37 = getelementptr inbounds nuw %"struct.OpenImageIO::v3_1_0::(anonymous namespace)::ChanNameHolder", ptr %36, i32 1
  store ptr %37, ptr %8, align 8, !tbaa !306
  br label %20

38:                                               ; preds = %32, %24
  call void @llvm.lifetime.end.p0(i64 8, ptr %9) #5
  call void @llvm.lifetime.end.p0(i64 8, ptr %8) #5
  call void @llvm.lifetime.end.p0(i64 8, ptr %7) #5
  %39 = load i32, ptr %10, align 4
  switch i32 %39, label %43 [
    i32 2, label %40
    i32 1, label %41
  ]

40:                                               ; preds = %38
  store i1 false, ptr %4, align 1
  br label %41

41:                                               ; preds = %40, %38
  %42 = load i1, ptr %4, align 1
  ret i1 %42

43:                                               ; preds = %38
  unreachable
}