; Function Attrs: mustprogress uwtable
define internal fastcc noundef zeroext i1 @_ZN11OpenImageIO6v3_1_012_GLOBAL__N_111suffixfoundENS0_17basic_string_viewIcSt11char_traitsIcEEENS0_4spanINS1_14ChanNameHolderELm18446744073709551615EEE(ptr noundef nonnull readonly captures(none) %0, ptr readonly %1, i64 %2) unnamed_addr #6 {
  %4 = alloca %"class.OpenImageIO::v3_1_0::basic_string_view", align 8
  %5 = alloca %"class.OpenImageIO::v3_1_0::basic_string_view", align 8
  %6 = getelementptr inbounds nuw %"struct.OpenImageIO::v3_1_0::(anonymous namespace)::ChanNameHolder", ptr %1, i64 %2
  %.not14.not = icmp eq i64 %2, 0
  br i1 %.not14.not, label %._crit_edge, label %.lr.ph

.lr.ph:                                           ; preds = %3
  %7 = getelementptr inbounds nuw i8, ptr %4, i64 8
  %8 = getelementptr inbounds nuw i8, ptr %0, i64 8
  %9 = getelementptr inbounds nuw i8, ptr %5, i64 8
  br label %10

10:                                               ; preds = %10, %.lr.ph
  %.01115 = phi ptr [ %1, %.lr.ph ], [ %18, %10 ]
  %11 = load ptr, ptr %0, align 8, !tbaa !91
  store ptr %11, ptr %4, align 8, !tbaa !91
  %12 = load i64, ptr %8, align 8, !tbaa !89
  store i64 %12, ptr %7, align 8, !tbaa !89
  %13 = getelementptr inbounds nuw i8, ptr %.01115, i64 32
  %14 = load ptr, ptr %13, align 8, !tbaa !91
  store ptr %14, ptr %5, align 8, !tbaa !91
  %15 = getelementptr inbounds nuw i8, ptr %.01115, i64 40
  %16 = load i64, ptr %15, align 8, !tbaa !89
  store i64 %16, ptr %9, align 8, !tbaa !89
  %17 = call noundef zeroext i1 @_ZN11OpenImageIO6v3_1_07Strutil7iequalsENS0_17basic_string_viewIcSt11char_traitsIcEEES5_(ptr noundef nonnull %4, ptr noundef nonnull %5)
  %18 = getelementptr inbounds nuw i8, ptr %.01115, i64 80
  %.not.not = icmp eq ptr %18, %6
  %or.cond = select i1 %17, i1 true, i1 %.not.not
  br i1 %or.cond, label %._crit_edge, label %10

._crit_edge:                                      ; preds = %10, %3
  %.not.lcssa = phi i1 [ false, %3 ], [ %17, %10 ]
  ret i1 %.not.lcssa
}